; Function Attrs: mustprogress uwtable
define internal noundef i32 @_ZNSt17_Function_handlerIFiiEZN4absl18container_internal12_GLOBAL__N_14TestC1EvEUliE_E9_M_invokeERKSt9_Any_dataOi(ptr noundef nonnull readonly align 8 captures(none) dereferenceable(16) %0, ptr noundef nonnull readonly align 4 captures(none) dereferenceable(4) %1) #5 align 2 personality ptr @__gxx_personality_v0 {
  %3 = alloca %"class.std::tuple.29", align 4
  %.val = load ptr, ptr %0, align 8, !tbaa !279
  %.val2 = load i32, ptr %1, align 4, !tbaa !81
  %4 = getelementptr inbounds nuw i8, ptr %.val, i64 24
  tail call void @_ZN7testing8internal25UntypedFunctionMockerBase15SetOwnerAndNameEPKvPKc(ptr noundef nonnull align 8 dereferenceable(72) %4, ptr noundef nonnull align 8 dereferenceable(72) %4, ptr noundef nonnull @.str.68)
  call void @llvm.lifetime.start.p0(i64 4, ptr nonnull %3) #28
  store i32 %.val2, ptr %3, align 4, !tbaa !281
  %5 = call noundef i32 @_ZN7testing8internal14FunctionMockerIFiiEE10InvokeWithEOSt5tupleIJiEE(ptr noundef nonnull align 8 dereferenceable(72) %4, ptr noundef nonnull align 4 dereferenceable(4) %3)
  call void @llvm.lifetime.end.p0(i64 4, ptr nonnull %3) #28
  ret i32 %5
}